; Function Attrs: mustprogress null_pointer_is_valid sspstrong uwtable
define void @_ZN18FollowStreamDialog5closeEv(ptr noundef align 8 dereferenceable_or_null(452) initializes((445, 446)) %0) local_unnamed_addr #2 align 2 personality ptr @__gxx_personality_v0 {
  %2 = alloca %class.QString, align 8
  %3 = getelementptr inbounds nuw i8, ptr %0, i64 445
  store i8 1, ptr %3, align 1
  %4 = getelementptr inbounds nuw i8, ptr %0, i64 376
  %5 = load ptr, ptr %4, align 8
  store ptr %5, ptr %2, align 8
  %6 = getelementptr inbounds nuw i8, ptr %2, i64 8
  %7 = getelementptr inbounds nuw i8, ptr %0, i64 384
  %8 = load ptr, ptr %7, align 8
  store ptr %8, ptr %6, align 8
  %9 = getelementptr inbounds nuw i8, ptr %2, i64 16
  %10 = getelementptr inbounds nuw i8, ptr %0, i64 392
  %11 = load i64, ptr %10, align 8
  store i64 %11, ptr %9, align 8
  %.not.i.i.i = icmp eq ptr %5, null
  br i1 %.not.i.i.i, label %_ZN7QStringC2ERKS_.exit, label %12

12:                                               ; preds = %1
  %13 = atomicrmw add ptr %5, i32 1 seq_cst, align 4
  br label %_ZN7QStringC2ERKS_.exit

_ZN7QStringC2ERKS_.exit:                          ; preds = %1, %12
  invoke void @_ZN18FollowStreamDialog12updateFilterE7QStringb(ptr noundef align 8 dereferenceable_or_null(452) %0, ptr noundef nonnull %2, i1 noundef zeroext true)
          to label %14 unwind label %20

14:                                               ; preds = %_ZN7QStringC2ERKS_.exit
  %15 = load ptr, ptr %2, align 8
  %.not.i.i.i2 = icmp eq ptr %15, null
  br i1 %.not.i.i.i2, label %_ZN7QStringD2Ev.exit, label %_ZN17QArrayDataPointerIDsE5derefEv.exit.i.i

_ZN17QArrayDataPointerIDsE5derefEv.exit.i.i:      ; preds = %14
  %16 = atomicrmw sub ptr %15, i32 1 seq_cst, align 4
  %.not.i.i = icmp eq i32 %16, 1
  br i1 %.not.i.i, label %17, label %_ZN7QStringD2Ev.exit

17:                                               ; preds = %_ZN17QArrayDataPointerIDsE5derefEv.exit.i.i
  %18 = load ptr, ptr %2, align 8
  call void @_ZN10QArrayData10deallocateEPS_xx(ptr noundef %18, i64 noundef 2, i64 noundef 8) #29
  br label %_ZN7QStringD2Ev.exit

_ZN7QStringD2Ev.exit:                             ; preds = %14, %_ZN17QArrayDataPointerIDsE5derefEv.exit.i.i, %17
  %19 = call noundef zeroext i1 @_ZN7QWidget5closeEv(ptr noundef align 8 dereferenceable_or_null(40) %0)
  ret void

20:                                               ; preds = %_ZN7QStringC2ERKS_.exit
  %21 = landingpad { ptr, i32 }
          cleanup
  %22 = load ptr, ptr %2, align 8
  %.not.i.i.i3 = icmp eq ptr %22, null
  br i1 %.not.i.i.i3, label %_ZN7QStringD2Ev.exit6, label %_ZN17QArrayDataPointerIDsE5derefEv.exit.i.i4

_ZN17QArrayDataPointerIDsE5derefEv.exit.i.i4:     ; preds = %20
  %23 = atomicrmw sub ptr %22, i32 1 seq_cst, align 4
  %.not.i.i5 = icmp eq i32 %23, 1
  br i1 %.not.i.i5, label %24, label %_ZN7QStringD2Ev.exit6

24:                                               ; preds = %_ZN17QArrayDataPointerIDsE5derefEv.exit.i.i4
  %25 = load ptr, ptr %2, align 8
  call void @_ZN10QArrayData10deallocateEPS_xx(ptr noundef %25, i64 noundef 2, i64 noundef 8) #29
  br label %_ZN7QStringD2Ev.exit6

_ZN7QStringD2Ev.exit6:                            ; preds = %20, %_ZN17QArrayDataPointerIDsE5derefEv.exit.i.i4, %24
  resume { ptr, i32 } %21
}